target datalayout = "e-m:e-p270:32:32-p271:32:32-p272:64:64-i64:64-i128:128-f80:128-n8:16:32:64-S128"
target triple = "x86_64-pc-linux-gnu"

%"class.cv::Size_" = type { i32, i32 }
%"class.testing::internal::MutexBase" = type { %union.pthread_mutex_t, i8, i64 }
%union.pthread_mutex_t = type { %struct.__pthread_mutex_s }
%struct.__pthread_mutex_s = type { i32, i32, i32, i32, i32, i16, i16, %struct.__pthread_internal_list }
%struct.__pthread_internal_list = type { ptr, ptr }
%"class.testing::internal::linked_ptr_internal" = type { ptr }
%"class.testing::internal::CartesianProductHolder4" = type { %"class.testing::internal::ValueArray2", %"class.testing::internal::ValueArray3", %"class.testing::internal::ParamGenerator.123", %"class.testing::internal::ParamGenerator.125" }
%"class.testing::internal::ValueArray2" = type { i32, i32 }
%"class.testing::internal::ValueArray3" = type { %"class.cv::Size_", %"class.cv::Size_", %"class.cv::Size_" }
%"class.testing::internal::ParamGenerator.123" = type { %"class.testing::internal::linked_ptr.124" }
%"class.testing::internal::linked_ptr.124" = type { ptr, %"class.testing::internal::linked_ptr_internal" }
%"class.testing::internal::ParamGenerator.125" = type { %"class.testing::internal::linked_ptr.126" }
%"class.testing::internal::linked_ptr.126" = type { ptr, %"class.testing::internal::linked_ptr_internal" }
%"class.testing::internal::GTestMutexLock" = type { ptr }

@_ZN7testing8internal18g_linked_ptr_mutexE = external global %"class.testing::internal::MutexBase", align 8

; Function Attrs: mustprogress nounwind uwtable
define linkonce_odr hidden void @_ZN7testing8internal14GTestMutexLockD2Ev(ptr noundef nonnull align 8 dereferenceable(8) %0) unnamed_addr #9 comdat align 2 personality ptr @__gxx_personality_v0 {
  %2 = alloca ptr, align 8
  store ptr %0, ptr %2, align 8, !tbaa !285
  %3 = load ptr, ptr %2, align 8
  %4 = getelementptr inbounds nuw %"class.testing::internal::GTestMutexLock", ptr %3, i32 0, i32 0
  %5 = load ptr, ptr %4, align 8, !tbaa !289
  invoke void @_ZN7testing8internal9MutexBase6UnlockEv(ptr noundef nonnull align 8 dereferenceable(56) %5)
          to label %6 unwind label %7

6:                                                ; preds = %1
  ret void

7:                                                ; preds = %1
  %8 = landingpad { ptr, i32 }
          catch ptr null
  %9 = extractvalue { ptr, i32 } %8, 0
  call void @__clang_call_terminate(ptr %9) #29
  unreachable
}

; Function Attrs: mustprogress uwtable
define linkonce_odr hidden void @_ZN7testing8internal14GTestMutexLockC2EPNS0_9MutexBaseE(ptr noundef nonnull align 8 dereferenceable(8) %0, ptr noundef %1) unnamed_addr #6 comdat align 2 {
  %3 = alloca ptr, align 8
  %4 = alloca ptr, align 8
  store ptr %0, ptr %3, align 8, !tbaa !285
  store ptr %1, ptr %4, align 8, !tbaa !287
  %5 = load ptr, ptr %3, align 8
  %6 = getelementptr inbounds nuw %"class.testing::internal::GTestMutexLock", ptr %5, i32 0, i32 0
  %7 = load ptr, ptr %4, align 8, !tbaa !287
  store ptr %7, ptr %6, align 8, !tbaa !289
  %8 = getelementptr inbounds nuw %"class.testing::internal::GTestMutexLock", ptr %5, i32 0, i32 0
  %9 = load ptr, ptr %8, align 8, !tbaa !289
  call void @_ZN7testing8internal9MutexBase4LockEv(ptr noundef nonnull align 8 dereferenceable(56) %9)
  ret void
}

; Function Attrs: mustprogress nounwind uwtable
define internal noundef ptr @_ZNK7testing8internal10linked_ptrIKNS0_23ParamGeneratorInterfaceIN11opencv_test12_GLOBAL__N_110BorderModeEEEE3getEv(ptr noundef nonnull align 8 dereferenceable(16) %0) #9 align 2 {
  %2 = alloca ptr, align 8
  store ptr %0, ptr %2, align 8, !tbaa !384
  %3 = load ptr, ptr %2, align 8
  %4 = getelementptr inbounds nuw %"class.testing::internal::linked_ptr.126", ptr %3, i32 0, i32 0
  %5 = load ptr, ptr %4, align 8, !tbaa !386
  ret ptr %5
}

; Function Attrs: mustprogress nounwind uwtable
define linkonce_odr hidden void @_ZN7testing8internal19linked_ptr_internal8join_newEv(ptr noundef nonnull align 8 dereferenceable(8) %0) #9 comdat align 2 {
  %2 = alloca ptr, align 8
  store ptr %0, ptr %2, align 8, !tbaa !282
  %3 = load ptr, ptr %2, align 8
  %4 = getelementptr inbounds nuw %"class.testing::internal::linked_ptr_internal", ptr %3, i32 0, i32 0
  store ptr %3, ptr %4, align 8, !tbaa !283
  ret void
}

; Function Attrs: mustprogress uwtable
define linkonce_odr hidden void @_ZN7testing8internal19linked_ptr_internal4joinEPKS1_(ptr noundef nonnull align 8 dereferenceable(8) %0, ptr noundef %1) #6 comdat align 2 {
  %3 = alloca ptr, align 8
  %4 = alloca ptr, align 8
  %5 = alloca %"class.testing::internal::GTestMutexLock", align 8
  %6 = alloca ptr, align 8
  store ptr %0, ptr %3, align 8, !tbaa !282
  store ptr %1, ptr %4, align 8, !tbaa !282
  %7 = load ptr, ptr %3, align 8
  call void @llvm.lifetime.start.p0(i64 8, ptr %5) #3
  call void @_ZN7testing8internal14GTestMutexLockC2EPNS0_9MutexBaseE(ptr noundef nonnull align 8 dereferenceable(8) %5, ptr noundef @_ZN7testing8internal18g_linked_ptr_mutexE)
  call void @llvm.lifetime.start.p0(i64 8, ptr %6) #3
  %8 = load ptr, ptr %4, align 8, !tbaa !282
  store ptr %8, ptr %6, align 8, !tbaa !282
  br label %9

9:                                                ; preds = %15, %2
  %10 = load ptr, ptr %6, align 8, !tbaa !282
  %11 = getelementptr inbounds nuw %"class.testing::internal::linked_ptr_internal", ptr %10, i32 0, i32 0
  %12 = load ptr, ptr %11, align 8, !tbaa !283
  %13 = load ptr, ptr %4, align 8, !tbaa !282
  %14 = icmp ne ptr %12, %13
  br i1 %14, label %15, label %19

15:                                               ; preds = %9
  %16 = load ptr, ptr %6, align 8, !tbaa !282
  %17 = getelementptr inbounds nuw %"class.testing::internal::linked_ptr_internal", ptr %16, i32 0, i32 0
  %18 = load ptr, ptr %17, align 8, !tbaa !283
  store ptr %18, ptr %6, align 8, !tbaa !282
  br label %9, !llvm.loop !284

19:                                               ; preds = %9
  %20 = load ptr, ptr %6, align 8, !tbaa !282
  %21 = getelementptr inbounds nuw %"class.testing::internal::linked_ptr_internal", ptr %20, i32 0, i32 0
  store ptr %7, ptr %21, align 8, !tbaa !283
  %22 = load ptr, ptr %4, align 8, !tbaa !282
  %23 = getelementptr inbounds nuw %"class.testing::internal::linked_ptr_internal", ptr %7, i32 0, i32 0
  store ptr %22, ptr %23, align 8, !tbaa !283
  call void @llvm.lifetime.end.p0(i64 8, ptr %6) #3
  call void @_ZN7testing8internal14GTestMutexLockD2Ev(ptr noundef nonnull align 8 dereferenceable(8) %5) #3
  call void @llvm.lifetime.end.p0(i64 8, ptr %5) #3
  ret void
}

; Function Attrs: mustprogress nounwind uwtable
define internal noundef ptr @_ZNK7testing8internal10linked_ptrIKNS0_23ParamGeneratorInterfaceIN11opencv_test12_GLOBAL__N_19InterTypeEEEE3getEv(ptr noundef nonnull align 8 dereferenceable(16) %0) #9 align 2 {
  %2 = alloca ptr, align 8
  store ptr %0, ptr %2, align 8, !tbaa !379
  %3 = load ptr, ptr %2, align 8
  %4 = getelementptr inbounds nuw %"class.testing::internal::linked_ptr.124", ptr %3, i32 0, i32 0
  %5 = load ptr, ptr %4, align 8, !tbaa !381
  ret ptr %5
}

; Function Attrs: mustprogress uwtable
define internal void @_ZN7testing8internal10linked_ptrIKNS0_23ParamGeneratorInterfaceIN11opencv_test12_GLOBAL__N_110BorderModeEEEE4copyIS7_EEvPKNS1_IT_EE(ptr noundef nonnull align 8 dereferenceable(16) %0, ptr noundef %1) #6 align 2 {
  %3 = alloca ptr, align 8
  %4 = alloca ptr, align 8
  store ptr %0, ptr %3, align 8, !tbaa !384
  store ptr %1, ptr %4, align 8, !tbaa !384
  %5 = load ptr, ptr %3, align 8
  %6 = load ptr, ptr %4, align 8, !tbaa !384
  %7 = call noundef ptr @_ZNK7testing8internal10linked_ptrIKNS0_23ParamGeneratorInterfaceIN11opencv_test12_GLOBAL__N_110BorderModeEEEE3getEv(ptr noundef nonnull align 8 dereferenceable(16) %6)
  %8 = getelementptr inbounds nuw %"class.testing::internal::linked_ptr.126", ptr %5, i32 0, i32 0
  store ptr %7, ptr %8, align 8, !tbaa !386
  %9 = getelementptr inbounds nuw %"class.testing::internal::linked_ptr.126", ptr %5, i32 0, i32 0
  %10 = load ptr, ptr %9, align 8, !tbaa !386
  %11 = icmp ne ptr %10, null
  br i1 %11, label %12, label %16

12:                                               ; preds = %2
  %13 = getelementptr inbounds nuw %"class.testing::internal::linked_ptr.126", ptr %5, i32 0, i32 1
  %14 = load ptr, ptr %4, align 8, !tbaa !384
  %15 = getelementptr inbounds nuw %"class.testing::internal::linked_ptr.126", ptr %14, i32 0, i32 1
  call void @_ZN7testing8internal19linked_ptr_internal4joinEPKS1_(ptr noundef nonnull align 8 dereferenceable(8) %13, ptr noundef %15)
  br label %18

16:                                               ; preds = %2
  %17 = getelementptr inbounds nuw %"class.testing::internal::linked_ptr.126", ptr %5, i32 0, i32 1
  call void @_ZN7testing8internal19linked_ptr_internal8join_newEv(ptr noundef nonnull align 8 dereferenceable(8) %17)
  br label %18

18:                                               ; preds = %16, %12
  ret void
}

; Function Attrs: mustprogress uwtable
define internal void @_ZN7testing8internal10linked_ptrIKNS0_23ParamGeneratorInterfaceIN11opencv_test12_GLOBAL__N_19InterTypeEEEE4copyIS7_EEvPKNS1_IT_EE(ptr noundef nonnull align 8 dereferenceable(16) %0, ptr noundef %1) #6 align 2 {
  %3 = alloca ptr, align 8
  %4 = alloca ptr, align 8
  store ptr %0, ptr %3, align 8, !tbaa !379
  store ptr %1, ptr %4, align 8, !tbaa !379
  %5 = load ptr, ptr %3, align 8
  %6 = load ptr, ptr %4, align 8, !tbaa !379
  %7 = call noundef ptr @_ZNK7testing8internal10linked_ptrIKNS0_23ParamGeneratorInterfaceIN11opencv_test12_GLOBAL__N_19InterTypeEEEE3getEv(ptr noundef nonnull align 8 dereferenceable(16) %6)
  %8 = getelementptr inbounds nuw %"class.testing::internal::linked_ptr.124", ptr %5, i32 0, i32 0
  store ptr %7, ptr %8, align 8, !tbaa !381
  %9 = getelementptr inbounds nuw %"class.testing::internal::linked_ptr.124", ptr %5, i32 0, i32 0
  %10 = load ptr, ptr %9, align 8, !tbaa !381
  %11 = icmp ne ptr %10, null
  br i1 %11, label %12, label %16

12:                                               ; preds = %2
  %13 = getelementptr inbounds nuw %"class.testing::internal::linked_ptr.124", ptr %5, i32 0, i32 1
  %14 = load ptr, ptr %4, align 8, !tbaa !379
  %15 = getelementptr inbounds nuw %"class.testing::internal::linked_ptr.124", ptr %14, i32 0, i32 1
  call void @_ZN7testing8internal19linked_ptr_internal4joinEPKS1_(ptr noundef nonnull align 8 dereferenceable(8) %13, ptr noundef %15)
  br label %18

16:                                               ; preds = %2
  %17 = getelementptr inbounds nuw %"class.testing::internal::linked_ptr.124", ptr %5, i32 0, i32 1
  call void @_ZN7testing8internal19linked_ptr_internal8join_newEv(ptr noundef nonnull align 8 dereferenceable(8) %17)
  br label %18

18:                                               ; preds = %16, %12
  ret void
}

; Function Attrs: mustprogress uwtable
define internal void @_ZN7testing8internal10linked_ptrIKNS0_23ParamGeneratorInterfaceIN11opencv_test12_GLOBAL__N_110BorderModeEEEEC2ERKS8_(ptr noundef nonnull align 8 dereferenceable(16) %0, ptr noundef nonnull align 8 dereferenceable(16) %1) unnamed_addr #6 align 2 {
  %3 = alloca ptr, align 8
  %4 = alloca ptr, align 8
  store ptr %0, ptr %3, align 8, !tbaa !384
  store ptr %1, ptr %4, align 8, !tbaa !384
  %5 = load ptr, ptr %3, align 8
  %6 = load ptr, ptr %4, align 8, !tbaa !384
  call void @_ZN7testing8internal10linked_ptrIKNS0_23ParamGeneratorInterfaceIN11opencv_test12_GLOBAL__N_110BorderModeEEEE4copyIS7_EEvPKNS1_IT_EE(ptr noundef nonnull align 8 dereferenceable(16) %5, ptr noundef %6)
  ret void
}

; Function Attrs: mustprogress uwtable
define internal void @_ZN7testing8internal10linked_ptrIKNS0_23ParamGeneratorInterfaceIN11opencv_test12_GLOBAL__N_19InterTypeEEEEC2ERKS8_(ptr noundef nonnull align 8 dereferenceable(16) %0, ptr noundef nonnull align 8 dereferenceable(16) %1) unnamed_addr #6 align 2 {
  %3 = alloca ptr, align 8
  %4 = alloca ptr, align 8
  store ptr %0, ptr %3, align 8, !tbaa !379
  store ptr %1, ptr %4, align 8, !tbaa !379
  %5 = load ptr, ptr %3, align 8
  %6 = load ptr, ptr %4, align 8, !tbaa !379
  call void @_ZN7testing8internal10linked_ptrIKNS0_23ParamGeneratorInterfaceIN11opencv_test12_GLOBAL__N_19InterTypeEEEE4copyIS7_EEvPKNS1_IT_EE(ptr noundef nonnull align 8 dereferenceable(16) %5, ptr noundef %6)
  ret void
}

; Function Attrs: mustprogress uwtable
define internal void @_ZN7testing8internal14ParamGeneratorIN11opencv_test12_GLOBAL__N_110BorderModeEEC2ERKS5_(ptr noundef nonnull align 8 dereferenceable(16) %0, ptr noundef nonnull align 8 dereferenceable(16) %1) unnamed_addr #6 align 2 {
  %3 = alloca ptr, align 8
  %4 = alloca ptr, align 8
  store ptr %0, ptr %3, align 8, !tbaa !372
  store ptr %1, ptr %4, align 8, !tbaa !372
  %5 = load ptr, ptr %3, align 8
  %6 = getelementptr inbounds nuw %"class.testing::internal::ParamGenerator.125", ptr %5, i32 0, i32 0
  %7 = load ptr, ptr %4, align 8, !tbaa !372
  %8 = getelementptr inbounds nuw %"class.testing::internal::ParamGenerator.125", ptr %7, i32 0, i32 0
  call void @_ZN7testing8internal10linked_ptrIKNS0_23ParamGeneratorInterfaceIN11opencv_test12_GLOBAL__N_110BorderModeEEEEC2ERKS8_(ptr noundef nonnull align 8 dereferenceable(16) %6, ptr noundef nonnull align 8 dereferenceable(16) %8)
  ret void
}

; Function Attrs: mustprogress uwtable
define internal void @_ZN7testing8internal14ParamGeneratorIN11opencv_test12_GLOBAL__N_19InterTypeEEC2ERKS5_(ptr noundef nonnull align 8 dereferenceable(16) %0, ptr noundef nonnull align 8 dereferenceable(16) %1) unnamed_addr #6 align 2 {
  %3 = alloca ptr, align 8
  %4 = alloca ptr, align 8
  store ptr %0, ptr %3, align 8, !tbaa !370
  store ptr %1, ptr %4, align 8, !tbaa !370
  %5 = load ptr, ptr %3, align 8
  %6 = getelementptr inbounds nuw %"class.testing::internal::ParamGenerator.123", ptr %5, i32 0, i32 0
  %7 = load ptr, ptr %4, align 8, !tbaa !370
  %8 = getelementptr inbounds nuw %"class.testing::internal::ParamGenerator.123", ptr %7, i32 0, i32 0
  call void @_ZN7testing8internal10linked_ptrIKNS0_23ParamGeneratorInterfaceIN11opencv_test12_GLOBAL__N_19InterTypeEEEEC2ERKS8_(ptr noundef nonnull align 8 dereferenceable(16) %6, ptr noundef nonnull align 8 dereferenceable(16) %8)
  ret void
}

; Function Attrs: mustprogress nounwind uwtable
define linkonce_odr hidden void @_ZN7testing8internal11ValueArray3IN2cv5Size_IiEES4_S4_EC2ERKS5_(ptr noundef nonnull align 4 dereferenceable(24) %0, ptr noundef nonnull align 4 dereferenceable(24) %1) unnamed_addr #9 comdat align 2 {
  %3 = alloca ptr, align 8
  %4 = alloca ptr, align 8
  store ptr %0, ptr %3, align 8, !tbaa !368
  store ptr %1, ptr %4, align 8, !tbaa !368
  %5 = load ptr, ptr %3, align 8
  %6 = getelementptr inbounds nuw %"class.testing::internal::ValueArray3", ptr %5, i32 0, i32 0
  %7 = load ptr, ptr %4, align 8, !tbaa !368
  %8 = getelementptr inbounds nuw %"class.testing::internal::ValueArray3", ptr %7, i32 0, i32 0
  call void @llvm.memcpy.p0.p0.i64(ptr align 4 %6, ptr align 4 %8, i64 8, i1 false), !tbaa.struct !73
  %9 = getelementptr inbounds nuw %"class.testing::internal::ValueArray3", ptr %5, i32 0, i32 1
  %10 = load ptr, ptr %4, align 8, !tbaa !368
  %11 = getelementptr inbounds nuw %"class.testing::internal::ValueArray3", ptr %10, i32 0, i32 1
  call void @llvm.memcpy.p0.p0.i64(ptr align 4 %9, ptr align 4 %11, i64 8, i1 false), !tbaa.struct !73
  %12 = getelementptr inbounds nuw %"class.testing::internal::ValueArray3", ptr %5, i32 0, i32 2
  %13 = load ptr, ptr %4, align 8, !tbaa !368
  %14 = getelementptr inbounds nuw %"class.testing::internal::ValueArray3", ptr %13, i32 0, i32 2
  call void @llvm.memcpy.p0.p0.i64(ptr align 4 %12, ptr align 4 %14, i64 8, i1 false), !tbaa.struct !73
  ret void
}

; Function Attrs: mustprogress nounwind uwtable
define linkonce_odr hidden void @_ZN7testing8internal11ValueArray2IiiEC2ERKS2_(ptr noundef nonnull align 4 dereferenceable(8) %0, ptr noundef nonnull align 4 dereferenceable(8) %1) unnamed_addr #9 comdat align 2 {
  %3 = alloca ptr, align 8
  %4 = alloca ptr, align 8
  store ptr %0, ptr %3, align 8, !tbaa !366
  store ptr %1, ptr %4, align 8, !tbaa !366
  %5 = load ptr, ptr %3, align 8
  %6 = getelementptr inbounds nuw %"class.testing::internal::ValueArray2", ptr %5, i32 0, i32 0
  %7 = load ptr, ptr %4, align 8, !tbaa !366
  %8 = getelementptr inbounds nuw %"class.testing::internal::ValueArray2", ptr %7, i32 0, i32 0
  %9 = load i32, ptr %8, align 4, !tbaa !376
  store i32 %9, ptr %6, align 4, !tbaa !376
  %10 = getelementptr inbounds nuw %"class.testing::internal::ValueArray2", ptr %5, i32 0, i32 1
  %11 = load ptr, ptr %4, align 8, !tbaa !366
  %12 = getelementptr inbounds nuw %"class.testing::internal::ValueArray2", ptr %11, i32 0, i32 1
  %13 = load i32, ptr %12, align 4, !tbaa !378
  store i32 %13, ptr %10, align 4, !tbaa !378
  ret void
}

; Function Attrs: mustprogress uwtable
define internal void @_ZN7testing8internal23CartesianProductHolder4INS0_11ValueArray2IiiEENS0_11ValueArray3IN2cv5Size_IiEES7_S7_EENS0_14ParamGeneratorIN11opencv_test12_GLOBAL__N_19InterTypeEEENS9_INSB_10BorderModeEEEEC2ERKS3_RKS8_RKSD_RKSF_(ptr noundef nonnull align 8 dereferenceable(64) %0, ptr noundef nonnull align 4 dereferenceable(8) %1, ptr noundef nonnull align 4 dereferenceable(24) %2, ptr noundef nonnull align 8 dereferenceable(16) %3, ptr noundef nonnull align 8 dereferenceable(16) %4) unnamed_addr #6 align 2 personality ptr @__gxx_personality_v0 {
  %6 = alloca ptr, align 8
  %7 = alloca ptr, align 8
  %8 = alloca ptr, align 8
  %9 = alloca ptr, align 8
  %10 = alloca ptr, align 8
  %11 = alloca ptr, align 8
  %12 = alloca i32, align 4
  store ptr %0, ptr %6, align 8, !tbaa !374
  store ptr %1, ptr %7, align 8, !tbaa !366
  store ptr %2, ptr %8, align 8, !tbaa !368
  store ptr %3, ptr %9, align 8, !tbaa !370
  store ptr %4, ptr %10, align 8, !tbaa !372
  %13 = load ptr, ptr %6, align 8
  %14 = getelementptr inbounds nuw %"class.testing::internal::CartesianProductHolder4", ptr %13, i32 0, i32 0
  %15 = load ptr, ptr %7, align 8, !tbaa !366
  call void @_ZN7testing8internal11ValueArray2IiiEC2ERKS2_(ptr noundef nonnull align 4 dereferenceable(8) %14, ptr noundef nonnull align 4 dereferenceable(8) %15)
  %16 = getelementptr inbounds nuw %"class.testing::internal::CartesianProductHolder4", ptr %13, i32 0, i32 1
  %17 = load ptr, ptr %8, align 8, !tbaa !368
  call void @_ZN7testing8internal11ValueArray3IN2cv5Size_IiEES4_S4_EC2ERKS5_(ptr noundef nonnull align 4 dereferenceable(24) %16, ptr noundef nonnull align 4 dereferenceable(24) %17)
  %18 = getelementptr inbounds nuw %"class.testing::internal::CartesianProductHolder4", ptr %13, i32 0, i32 2
  %19 = load ptr, ptr %9, align 8, !tbaa !370
  call void @_ZN7testing8internal14ParamGeneratorIN11opencv_test12_GLOBAL__N_19InterTypeEEC2ERKS5_(ptr noundef nonnull align 8 dereferenceable(16) %18, ptr noundef nonnull align 8 dereferenceable(16) %19)
  %20 = getelementptr inbounds nuw %"class.testing::internal::CartesianProductHolder4", ptr %13, i32 0, i32 3
  %21 = load ptr, ptr %10, align 8, !tbaa !372
  invoke void @_ZN7testing8internal14ParamGeneratorIN11opencv_test12_GLOBAL__N_110BorderModeEEC2ERKS5_(ptr noundef nonnull align 8 dereferenceable(16) %20, ptr noundef nonnull align 8 dereferenceable(16) %21)
          to label %22 unwind label %23

22:                                               ; preds = %5
  ret void

23:                                               ; preds = %5
  %24 = landingpad { ptr, i32 }
          cleanup
  %25 = extractvalue { ptr, i32 } %24, 0
  store ptr %25, ptr %11, align 8
  %26 = extractvalue { ptr, i32 } %24, 1
  store i32 %26, ptr %12, align 4
  call void @_ZN7testing8internal14ParamGeneratorIN11opencv_test12_GLOBAL__N_19InterTypeEED2Ev(ptr noundef nonnull align 8 dereferenceable(16) %18) #3
  br label %27

27:                                               ; preds = %23
  %28 = load ptr, ptr %11, align 8
  %29 = load i32, ptr %12, align 4
  %30 = insertvalue { ptr, i32 } poison, ptr %28, 0
  %31 = insertvalue { ptr, i32 } %30, i32 %29, 1
  resume { ptr, i32 } %31
}

; Function Attrs: mustprogress uwtable
define internal void @_ZN7testing7CombineINS_8internal11ValueArray2IiiEENS1_11ValueArray3IN2cv5Size_IiEES7_S7_EENS1_14ParamGeneratorIN11opencv_test12_GLOBAL__N_19InterTypeEEENS9_INSB_10BorderModeEEEEENS1_23CartesianProductHolder4IT_T0_T1_T2_EERKSH_RKSI_RKSJ_RKSK_(ptr dead_on_unwind noalias writable sret(%"class.testing::internal::CartesianProductHolder4") align 8 %0, ptr noundef nonnull align 4 dereferenceable(8) %1, ptr noundef nonnull align 4 dereferenceable(24) %2, ptr noundef nonnull align 8 dereferenceable(16) %3, ptr noundef nonnull align 8 dereferenceable(16) %4) #6 {
  %6 = alloca ptr, align 8
  %7 = alloca ptr, align 8
  %8 = alloca ptr, align 8
  %9 = alloca ptr, align 8
  %10 = alloca ptr, align 8
  store ptr %0, ptr %6, align 8
  store ptr %1, ptr %7, align 8, !tbaa !366
  store ptr %2, ptr %8, align 8, !tbaa !368
  store ptr %3, ptr %9, align 8, !tbaa !370
  store ptr %4, ptr %10, align 8, !tbaa !372
  %11 = load ptr, ptr %7, align 8, !tbaa !366
  %12 = load ptr, ptr %8, align 8, !tbaa !368
  %13 = load ptr, ptr %9, align 8, !tbaa !370
  %14 = load ptr, ptr %10, align 8, !tbaa !372
  call void @_ZN7testing8internal23CartesianProductHolder4INS0_11ValueArray2IiiEENS0_11ValueArray3IN2cv5Size_IiEES7_S7_EENS0_14ParamGeneratorIN11opencv_test12_GLOBAL__N_19InterTypeEEENS9_INSB_10BorderModeEEEEC2ERKS3_RKS8_RKSD_RKSF_(ptr noundef nonnull align 8 dereferenceable(64) %0, ptr noundef nonnull align 4 dereferenceable(8) %11, ptr noundef nonnull align 4 dereferenceable(24) %12, ptr noundef nonnull align 8 dereferenceable(16) %13, ptr noundef nonnull align 8 dereferenceable(16) %14)
  ret void
}