; Function Attrs: mustprogress uwtable
define internal fastcc void @_ZN7testing7CombineINS_8internal11ValueArray2IiiEENS1_11ValueArray3IN2cv5Size_IiEES7_S7_EENS1_14ParamGeneratorIN11opencv_test12_GLOBAL__N_19InterTypeEEENS9_INSB_10BorderModeEEEEENS1_23CartesianProductHolder4IT_T0_T1_T2_EERKSH_RKSI_RKSJ_RKSK_(ptr dead_on_unwind noalias nonnull writable align 8 initializes((0, 40)) %0, i32 %.0.val, i32 %.4.val, ptr noundef nonnull readonly align 4 captures(none) dereferenceable(24) %1, ptr noundef nonnull align 8 dereferenceable(16) %2, ptr noundef nonnull align 8 dereferenceable(16) %3) unnamed_addr #4 personality ptr @__gxx_personality_v0 {
  store i32 %.0.val, ptr %0, align 8, !tbaa !399
  %5 = getelementptr inbounds nuw i8, ptr %0, i64 4
  store i32 %.4.val, ptr %5, align 4, !tbaa !401
  %6 = getelementptr inbounds nuw i8, ptr %0, i64 8
  %7 = load i64, ptr %1, align 4
  store i64 %7, ptr %6, align 8
  %8 = getelementptr inbounds nuw i8, ptr %0, i64 16
  %9 = getelementptr inbounds nuw i8, ptr %1, i64 8
  %10 = load i64, ptr %9, align 4
  store i64 %10, ptr %8, align 8
  %11 = getelementptr inbounds nuw i8, ptr %0, i64 24
  %12 = getelementptr inbounds nuw i8, ptr %1, i64 16
  %13 = load i64, ptr %12, align 4
  store i64 %13, ptr %11, align 8
  %14 = getelementptr inbounds nuw i8, ptr %0, i64 32
  %.val.i.i.i.i = load ptr, ptr %2, align 8, !tbaa !94
  store ptr %.val.i.i.i.i, ptr %14, align 8, !tbaa !94
  %.not.i.i.i.i = icmp eq ptr %.val.i.i.i.i, null
  br i1 %.not.i.i.i.i, label %24, label %15

15:                                               ; preds = %4
  %16 = getelementptr inbounds nuw i8, ptr %2, i64 8
  tail call void @_ZN7testing8internal9MutexBase4LockEv(ptr noundef nonnull align 8 dereferenceable(56) @_ZN7testing8internal18g_linked_ptr_mutexE)
  br label %17

17:                                               ; preds = %17, %15
  %.0.i.i.i.i.i = phi ptr [ %16, %15 ], [ %18, %17 ]
  %18 = load ptr, ptr %.0.i.i.i.i.i, align 8, !tbaa !29
  %.not.i.i.i.i.i = icmp eq ptr %18, %16
  br i1 %.not.i.i.i.i.i, label %19, label %17, !llvm.loop !34

19:                                               ; preds = %17
  %20 = getelementptr inbounds nuw i8, ptr %0, i64 40
  store ptr %20, ptr %.0.i.i.i.i.i, align 8, !tbaa !29
  store ptr %16, ptr %20, align 8, !tbaa !29
  invoke void @_ZN7testing8internal9MutexBase6UnlockEv(ptr noundef nonnull align 8 dereferenceable(56) @_ZN7testing8internal18g_linked_ptr_mutexE)
          to label %_ZN7testing8internal14ParamGeneratorIN11opencv_test12_GLOBAL__N_19InterTypeEEC2ERKS5_.exit.i unwind label %21

21:                                               ; preds = %19
  %22 = landingpad { ptr, i32 }
          catch ptr null
  %23 = extractvalue { ptr, i32 } %22, 0
  tail call void @__clang_call_terminate(ptr %23) #35
  unreachable

24:                                               ; preds = %4
  %25 = getelementptr inbounds nuw i8, ptr %0, i64 40
  store ptr %25, ptr %25, align 8, !tbaa !29
  br label %_ZN7testing8internal14ParamGeneratorIN11opencv_test12_GLOBAL__N_19InterTypeEEC2ERKS5_.exit.i

_ZN7testing8internal14ParamGeneratorIN11opencv_test12_GLOBAL__N_19InterTypeEEC2ERKS5_.exit.i: ; preds = %24, %19
  %26 = getelementptr inbounds nuw i8, ptr %0, i64 48
  %.val.i.i.i6.i = load ptr, ptr %3, align 8, !tbaa !112
  store ptr %.val.i.i.i6.i, ptr %26, align 8, !tbaa !112
  %.not.i.i.i7.i = icmp eq ptr %.val.i.i.i6.i, null
  br i1 %.not.i.i.i7.i, label %35, label %27

27:                                               ; preds = %_ZN7testing8internal14ParamGeneratorIN11opencv_test12_GLOBAL__N_19InterTypeEEC2ERKS5_.exit.i
  %28 = getelementptr inbounds nuw i8, ptr %3, i64 8
  invoke void @_ZN7testing8internal9MutexBase4LockEv(ptr noundef nonnull align 8 dereferenceable(56) @_ZN7testing8internal18g_linked_ptr_mutexE)
          to label %.noexc.i unwind label %37

.noexc.i:                                         ; preds = %27, %.noexc.i
  %.0.i.i.i.i8.i = phi ptr [ %29, %.noexc.i ], [ %28, %27 ]
  %29 = load ptr, ptr %.0.i.i.i.i8.i, align 8, !tbaa !29
  %.not.i.i.i.i9.i = icmp eq ptr %29, %28
  br i1 %.not.i.i.i.i9.i, label %30, label %.noexc.i, !llvm.loop !34

30:                                               ; preds = %.noexc.i
  %31 = getelementptr inbounds nuw i8, ptr %0, i64 56
  store ptr %31, ptr %.0.i.i.i.i8.i, align 8, !tbaa !29
  store ptr %28, ptr %31, align 8, !tbaa !29
  invoke void @_ZN7testing8internal9MutexBase6UnlockEv(ptr noundef nonnull align 8 dereferenceable(56) @_ZN7testing8internal18g_linked_ptr_mutexE)
          to label %_ZN7testing8internal23CartesianProductHolder4INS0_11ValueArray2IiiEENS0_11ValueArray3IN2cv5Size_IiEES7_S7_EENS0_14ParamGeneratorIN11opencv_test12_GLOBAL__N_19InterTypeEEENS9_INSB_10BorderModeEEEEC2ERKS3_RKS8_RKSD_RKSF_.exit unwind label %32

32:                                               ; preds = %30
  %33 = landingpad { ptr, i32 }
          catch ptr null
  %34 = extractvalue { ptr, i32 } %33, 0
  tail call void @__clang_call_terminate(ptr %34) #35
  unreachable

35:                                               ; preds = %_ZN7testing8internal14ParamGeneratorIN11opencv_test12_GLOBAL__N_19InterTypeEEC2ERKS5_.exit.i
  %36 = getelementptr inbounds nuw i8, ptr %0, i64 56
  store ptr %36, ptr %36, align 8, !tbaa !29
  br label %_ZN7testing8internal23CartesianProductHolder4INS0_11ValueArray2IiiEENS0_11ValueArray3IN2cv5Size_IiEES7_S7_EENS0_14ParamGeneratorIN11opencv_test12_GLOBAL__N_19InterTypeEEENS9_INSB_10BorderModeEEEEC2ERKS3_RKS8_RKSD_RKSF_.exit

37:                                               ; preds = %27
  %38 = landingpad { ptr, i32 }
          cleanup
  tail call fastcc void @_ZN7testing8internal14ParamGeneratorIN11opencv_test12_GLOBAL__N_19InterTypeEED2Ev(ptr noundef nonnull align 8 dereferenceable(16) %14) #33
  resume { ptr, i32 } %38

_ZN7testing8internal23CartesianProductHolder4INS0_11ValueArray2IiiEENS0_11ValueArray3IN2cv5Size_IiEES7_S7_EENS0_14ParamGeneratorIN11opencv_test12_GLOBAL__N_19InterTypeEEENS9_INSB_10BorderModeEEEEC2ERKS3_RKS8_RKSD_RKSF_.exit: ; preds = %30, %35
  ret void
}